; Function Attrs: nounwind uwtable
define hidden i32 @_mi_prim_decommit(ptr noundef %0, i64 noundef %1, ptr noundef writeonly captures(none) initializes((0, 1)) %2) local_unnamed_addr #0 {
  %4 = tail call i32 @madvise(ptr noundef %0, i64 noundef %1, i32 noundef 4) #10
  %5 = icmp eq i32 %4, 0
  br i1 %5, label %unix_madvise.exit, label %6

6:                                                ; preds = %3
  %7 = tail call ptr @__errno_location() #12
  %8 = load i32, ptr %7, align 4, !tbaa !15
  br label %unix_madvise.exit

unix_madvise.exit:                                ; preds = %3, %6
  %9 = phi i32 [ %8, %6 ], [ 0, %3 ]
  store i8 0, ptr %2, align 1, !tbaa !17
  ret i32 %9
}